target datalayout = "e-m:e-p270:32:32-p271:32:32-p272:64:64-i64:64-i128:128-f80:128-n8:16:32:64-S128"
target triple = "x86_64-pc-linux-gnu"

%struct._generic_N_Vector = type { ptr, ptr, ptr }
%struct._N_VectorContent_Serial = type { i64, i32, ptr }

@stdout = external global ptr, align 8
@.str.39 = private unnamed_addr constant [40 x i8] c"\0ASUNDIALS_WARNING: check_ans error=%g\0A\0A\00", align 1

; Function Attrs: nounwind uwtable
define internal i32 @check_ans(ptr noundef %0, double noundef %1, double noundef %2, double noundef %3) #0 {
  %5 = alloca ptr, align 8
  %6 = alloca double, align 8
  %7 = alloca double, align 8
  %8 = alloca double, align 8
  %9 = alloca i32, align 4
  %10 = alloca double, align 8
  %11 = alloca double, align 8
  %12 = alloca double, align 8
  store ptr %0, ptr %5, align 8, !tbaa !10
  store double %1, ptr %6, align 8, !tbaa !4
  store double %2, ptr %7, align 8, !tbaa !4
  store double %3, ptr %8, align 8, !tbaa !4
  call void @llvm.lifetime.start.p0(i64 4, ptr %9) #5
  store i32 0, ptr %9, align 4, !tbaa !16
  call void @llvm.lifetime.start.p0(i64 8, ptr %10) #5
  call void @llvm.lifetime.start.p0(i64 8, ptr %11) #5
  call void @llvm.lifetime.start.p0(i64 8, ptr %12) #5
  %13 = load double, ptr %6, align 8, !tbaa !4
  %14 = call double @atan(double noundef %13) #5, !tbaa !16
  store double %14, ptr %10, align 8, !tbaa !4
  %15 = load double, ptr %7, align 8, !tbaa !4
  %16 = load double, ptr %10, align 8, !tbaa !4
  %17 = call double @llvm.fabs.f64(double %16)
  %18 = load double, ptr %8, align 8, !tbaa !4
  %19 = call double @llvm.fmuladd.f64(double %15, double %17, double %18)
  %20 = fdiv double 1.000000e+00, %19
  store double %20, ptr %12, align 8, !tbaa !4
  %21 = load double, ptr %12, align 8, !tbaa !4
  %22 = load ptr, ptr %5, align 8, !tbaa !10
  %23 = getelementptr inbounds nuw %struct._generic_N_Vector, ptr %22, i32 0, i32 0
  %24 = load ptr, ptr %23, align 8, !tbaa !20
  %25 = getelementptr inbounds nuw %struct._N_VectorContent_Serial, ptr %24, i32 0, i32 2
  %26 = load ptr, ptr %25, align 8, !tbaa !23
  %27 = getelementptr inbounds double, ptr %26, i64 0
  %28 = load double, ptr %27, align 8, !tbaa !4
  %29 = load double, ptr %10, align 8, !tbaa !4
  %30 = fsub double %28, %29
  %31 = call double @llvm.fabs.f64(double %30)
  %32 = fmul double %21, %31
  store double %32, ptr %11, align 8, !tbaa !4
  %33 = load double, ptr %11, align 8, !tbaa !4
  %34 = fcmp olt double %33, 1.000000e+00
  %35 = select i1 %34, i32 0, i32 1
  store i32 %35, ptr %9, align 4, !tbaa !16
  %36 = load i32, ptr %9, align 4, !tbaa !16
  %37 = icmp ne i32 %36, 0
  br i1 %37, label %38, label %42

38:                                               ; preds = %4
  %39 = load ptr, ptr @stdout, align 8, !tbaa !26
  %40 = load double, ptr %11, align 8, !tbaa !4
  %41 = call i32 (ptr, ptr, ...) @fprintf(ptr noundef %39, ptr noundef @.str.39, double noundef %40) #5
  br label %42

42:                                               ; preds = %38, %4
  %43 = load i32, ptr %9, align 4, !tbaa !16
  call void @llvm.lifetime.end.p0(i64 8, ptr %12) #5
  call void @llvm.lifetime.end.p0(i64 8, ptr %11) #5
  call void @llvm.lifetime.end.p0(i64 8, ptr %10) #5
  call void @llvm.lifetime.end.p0(i64 4, ptr %9) #5
  ret i32 %43
}