; Function Attrs: nofree nounwind uwtable
define internal fastcc range(i32 0, 2) i32 @check_ans(double %.0.val.16.val.0.val, double noundef %0) unnamed_addr #5 {
  %2 = tail call double @atan(double noundef %0) #10, !tbaa !31
  %3 = tail call double @llvm.fabs.f64(double %2)
  %4 = tail call double @llvm.fmuladd.f64(double %3, double 0x3EB0C6F7A0B5ED8D, double 1.000000e-10)
  %5 = fdiv double 1.000000e+00, %4
  %6 = fsub double %.0.val.16.val.0.val, %2
  %7 = tail call double @llvm.fabs.f64(double %6)
  %8 = fmul double %7, %5
  %9 = fcmp uge double %8, 1.000000e+00
  br i1 %9, label %10, label %13

10:                                               ; preds = %1
  %11 = load ptr, ptr @stdout, align 8, !tbaa !8
  %12 = tail call i32 (ptr, ptr, ...) @fprintf(ptr noundef %11, ptr noundef nonnull @.str.39, double noundef %8) #10
  br label %13

13:                                               ; preds = %10, %1
  %14 = zext i1 %9 to i32
  ret i32 %14
}